target datalayout = "e-m:e-p270:32:32-p271:32:32-p272:64:64-i64:64-i128:128-f80:128-n8:16:32:64-S128"
target triple = "x86_64-pc-linux-gnu"

%struct._object = type { %union.anon, ptr }
%union.anon = type { i64 }
%struct.PyModuleObject = type { %struct._object, ptr, ptr, ptr, ptr, ptr }
%struct.PyModuleDef = type { %struct.PyModuleDef_Base, ptr, ptr, i64, ptr, ptr, ptr, ptr, ptr }
%struct.PyModuleDef_Base = type { %struct._object, ptr, i64, ptr }
%struct.anon = type { i32, i32 }

@.str.37 = private unnamed_addr constant [43 x i8] c"Exception ignored in m_clear of module%s%V\00", align 1
@.str.38 = private unnamed_addr constant [2 x i8] c" \00", align 1
@.str.39 = private unnamed_addr constant [1 x i8] zeroinitializer, align 1

; Function Attrs: alwaysinline nounwind uwtable
define internal i32 @_Py_IsImmortal(ptr noundef %0) #4 {
  %2 = alloca ptr, align 8
  store ptr %0, ptr %2, align 8, !tbaa !4
  %3 = load ptr, ptr %2, align 8, !tbaa !4
  %4 = getelementptr inbounds nuw %struct._object, ptr %3, i32 0, i32 0
  %5 = getelementptr inbounds nuw %struct.anon, ptr %4, i32 0, i32 0
  %6 = load i32, ptr %5, align 8, !tbaa !26
  %7 = icmp slt i32 %6, 0
  %8 = zext i1 %7 to i32
  ret i32 %8
}

; Function Attrs: alwaysinline nounwind uwtable
define internal void @Py_DECREF(ptr noundef %0) #4 {
  %2 = alloca ptr, align 8
  store ptr %0, ptr %2, align 8, !tbaa !4
  %3 = load ptr, ptr %2, align 8, !tbaa !4
  %4 = call i32 @_Py_IsImmortal(ptr noundef %3)
  %5 = icmp ne i32 %4, 0
  br i1 %5, label %6, label %7

6:                                                ; preds = %1
  br label %16

7:                                                ; preds = %1
  %8 = load ptr, ptr %2, align 8, !tbaa !4
  %9 = getelementptr inbounds nuw %struct._object, ptr %8, i32 0, i32 0
  %10 = getelementptr inbounds nuw %struct.anon, ptr %9, i32 0, i32 0
  %11 = load i32, ptr %10, align 8, !tbaa !26
  %12 = add i32 %11, -1
  store i32 %12, ptr %10, align 8, !tbaa !26
  %13 = icmp eq i32 %12, 0
  br i1 %13, label %14, label %16

14:                                               ; preds = %7
  %15 = load ptr, ptr %2, align 8, !tbaa !4
  call void @_Py_Dealloc(ptr noundef %15)
  br label %16

16:                                               ; preds = %6, %14, %7
  ret void
}

; Function Attrs: nounwind uwtable
define internal i32 @module_clear(ptr noundef %0) #0 {
  %2 = alloca i32, align 4
  %3 = alloca ptr, align 8
  %4 = alloca ptr, align 8
  %5 = alloca i32, align 4
  %6 = alloca i32, align 4
  %7 = alloca ptr, align 8
  %8 = alloca ptr, align 8
  store ptr %0, ptr %3, align 8, !tbaa !4
  call void @llvm.lifetime.start.p0(i64 8, ptr %4) #9
  %9 = load ptr, ptr %3, align 8, !tbaa !4
  store ptr %9, ptr %4, align 8, !tbaa !9
  %10 = load ptr, ptr %4, align 8, !tbaa !9
  %11 = getelementptr inbounds nuw %struct.PyModuleObject, ptr %10, i32 0, i32 2
  %12 = load ptr, ptr %11, align 8, !tbaa !10
  %13 = icmp ne ptr %12, null
  br i1 %13, label %14, label %61

14:                                               ; preds = %1
  %15 = load ptr, ptr %4, align 8, !tbaa !9
  %16 = getelementptr inbounds nuw %struct.PyModuleObject, ptr %15, i32 0, i32 2
  %17 = load ptr, ptr %16, align 8, !tbaa !10
  %18 = getelementptr inbounds nuw %struct.PyModuleDef, ptr %17, i32 0, i32 7
  %19 = load ptr, ptr %18, align 8, !tbaa !129
  %20 = icmp ne ptr %19, null
  br i1 %20, label %21, label %61

21:                                               ; preds = %14
  %22 = load ptr, ptr %4, align 8, !tbaa !9
  %23 = getelementptr inbounds nuw %struct.PyModuleObject, ptr %22, i32 0, i32 2
  %24 = load ptr, ptr %23, align 8, !tbaa !10
  %25 = getelementptr inbounds nuw %struct.PyModuleDef, ptr %24, i32 0, i32 3
  %26 = load i64, ptr %25, align 8, !tbaa !49
  %27 = icmp sle i64 %26, 0
  br i1 %27, label %33, label %28

28:                                               ; preds = %21
  %29 = load ptr, ptr %4, align 8, !tbaa !9
  %30 = getelementptr inbounds nuw %struct.PyModuleObject, ptr %29, i32 0, i32 3
  %31 = load ptr, ptr %30, align 8, !tbaa !29
  %32 = icmp ne ptr %31, null
  br i1 %32, label %33, label %61

33:                                               ; preds = %28, %21
  call void @llvm.lifetime.start.p0(i64 4, ptr %5) #9
  %34 = load ptr, ptr %4, align 8, !tbaa !9
  %35 = getelementptr inbounds nuw %struct.PyModuleObject, ptr %34, i32 0, i32 2
  %36 = load ptr, ptr %35, align 8, !tbaa !10
  %37 = getelementptr inbounds nuw %struct.PyModuleDef, ptr %36, i32 0, i32 7
  %38 = load ptr, ptr %37, align 8, !tbaa !129
  %39 = load ptr, ptr %4, align 8, !tbaa !9
  %40 = call i32 %38(ptr noundef %39)
  store i32 %40, ptr %5, align 4, !tbaa !35
  %41 = call ptr @PyErr_Occurred()
  %42 = icmp ne ptr %41, null
  br i1 %42, label %43, label %52

43:                                               ; preds = %33
  %44 = load ptr, ptr %4, align 8, !tbaa !9
  %45 = getelementptr inbounds nuw %struct.PyModuleObject, ptr %44, i32 0, i32 5
  %46 = load ptr, ptr %45, align 8, !tbaa !31
  %47 = icmp ne ptr %46, null
  %48 = select i1 %47, ptr @.str.38, ptr @.str.39
  %49 = load ptr, ptr %4, align 8, !tbaa !9
  %50 = getelementptr inbounds nuw %struct.PyModuleObject, ptr %49, i32 0, i32 5
  %51 = load ptr, ptr %50, align 8, !tbaa !31
  call void (ptr, ...) @PyErr_FormatUnraisable(ptr noundef @.str.37, ptr noundef %48, ptr noundef %51, ptr noundef @.str.39)
  br label %52

52:                                               ; preds = %43, %33
  %53 = load i32, ptr %5, align 4, !tbaa !35
  %54 = icmp ne i32 %53, 0
  br i1 %54, label %55, label %57

55:                                               ; preds = %52
  %56 = load i32, ptr %5, align 4, !tbaa !35
  store i32 %56, ptr %2, align 4
  store i32 1, ptr %6, align 4
  br label %58

57:                                               ; preds = %52
  store i32 0, ptr %6, align 4
  br label %58

58:                                               ; preds = %57, %55
  call void @llvm.lifetime.end.p0(i64 4, ptr %5) #9
  %59 = load i32, ptr %6, align 4
  switch i32 %59, label %75 [
    i32 0, label %60
  ]

60:                                               ; preds = %58
  br label %61

61:                                               ; preds = %60, %28, %14, %1
  br label %62

62:                                               ; preds = %61
  call void @llvm.lifetime.start.p0(i64 8, ptr %7) #9
  %63 = load ptr, ptr %4, align 8, !tbaa !9
  %64 = getelementptr inbounds nuw %struct.PyModuleObject, ptr %63, i32 0, i32 1
  store ptr %64, ptr %7, align 8, !tbaa !32
  call void @llvm.lifetime.start.p0(i64 8, ptr %8) #9
  %65 = load ptr, ptr %7, align 8, !tbaa !32
  %66 = load ptr, ptr %65, align 8, !tbaa !4
  store ptr %66, ptr %8, align 8, !tbaa !4
  %67 = load ptr, ptr %8, align 8, !tbaa !4
  %68 = icmp ne ptr %67, null
  br i1 %68, label %69, label %72

69:                                               ; preds = %62
  %70 = load ptr, ptr %7, align 8, !tbaa !32
  store ptr null, ptr %70, align 8, !tbaa !4
  %71 = load ptr, ptr %8, align 8, !tbaa !4
  call void @Py_DECREF(ptr noundef %71)
  br label %72

72:                                               ; preds = %69, %62
  call void @llvm.lifetime.end.p0(i64 8, ptr %8) #9
  call void @llvm.lifetime.end.p0(i64 8, ptr %7) #9
  br label %73

73:                                               ; preds = %72
  br label %74

74:                                               ; preds = %73
  store i32 0, ptr %2, align 4
  store i32 1, ptr %6, align 4
  br label %75

75:                                               ; preds = %74, %58
  call void @llvm.lifetime.end.p0(i64 8, ptr %4) #9
  %76 = load i32, ptr %2, align 4
  ret i32 %76
}