; Function Attrs: nounwind uwtable
define internal i32 @module_clear(ptr noundef %0) #0 {
  %2 = getelementptr inbounds nuw i8, ptr %0, i64 24
  %3 = load ptr, ptr %2, align 8, !tbaa !10
  %.not = icmp eq ptr %3, null
  br i1 %.not, label %22, label %4

4:                                                ; preds = %1
  %5 = getelementptr inbounds nuw i8, ptr %3, i64 88
  %6 = load ptr, ptr %5, align 8, !tbaa !202
  %.not19 = icmp eq ptr %6, null
  br i1 %.not19, label %22, label %7

7:                                                ; preds = %4
  %8 = getelementptr inbounds nuw i8, ptr %3, i64 56
  %9 = load i64, ptr %8, align 8, !tbaa !39
  %10 = icmp slt i64 %9, 1
  br i1 %10, label %14, label %11

11:                                               ; preds = %7
  %12 = getelementptr inbounds nuw i8, ptr %0, i64 32
  %13 = load ptr, ptr %12, align 8, !tbaa !40
  %.not20 = icmp eq ptr %13, null
  br i1 %.not20, label %22, label %14

14:                                               ; preds = %11, %7
  %15 = tail call i32 %6(ptr noundef nonnull %0) #8
  %16 = tail call ptr @PyErr_Occurred() #8
  %.not21 = icmp eq ptr %16, null
  br i1 %.not21, label %21, label %17

17:                                               ; preds = %14
  %18 = getelementptr inbounds nuw i8, ptr %0, i64 48
  %19 = load ptr, ptr %18, align 8, !tbaa !221
  %.not22 = icmp eq ptr %19, null
  %20 = select i1 %.not22, ptr @.str.39, ptr @.str.38
  tail call void (ptr, ...) @PyErr_FormatUnraisable(ptr noundef nonnull @.str.37, ptr noundef nonnull %20, ptr noundef %19, ptr noundef nonnull @.str.39) #8
  br label %21

21:                                               ; preds = %17, %14
  %.not23 = icmp eq i32 %15, 0
  br i1 %.not23, label %22, label %Py_DECREF.exit

22:                                               ; preds = %1, %4, %11, %21
  %23 = getelementptr inbounds nuw i8, ptr %0, i64 16
  %24 = load ptr, ptr %23, align 8, !tbaa !24
  %.not24 = icmp eq ptr %24, null
  br i1 %.not24, label %Py_DECREF.exit, label %25

25:                                               ; preds = %22
  store ptr null, ptr %23, align 8, !tbaa !24
  %26 = load i32, ptr %24, align 8, !tbaa !22
  %.not.i = icmp sgt i32 %26, -1
  br i1 %.not.i, label %27, label %Py_DECREF.exit

27:                                               ; preds = %25
  %28 = add nsw i32 %26, -1
  store i32 %28, ptr %24, align 8, !tbaa !22
  %29 = icmp eq i32 %28, 0
  br i1 %29, label %30, label %Py_DECREF.exit

30:                                               ; preds = %27
  tail call void @_Py_Dealloc(ptr noundef nonnull %24) #8
  br label %Py_DECREF.exit

Py_DECREF.exit:                                   ; preds = %30, %27, %25, %22, %21
  %.1 = phi i32 [ %15, %21 ], [ 0, %22 ], [ 0, %25 ], [ 0, %27 ], [ 0, %30 ]
  ret i32 %.1
}